target datalayout = "e-m:e-p270:32:32-p271:32:32-p272:64:64-i64:64-i128:128-f80:128-n8:16:32:64-S128"
target triple = "x86_64-pc-linux-gnu"

%struct.Aig_Man_t_ = type { ptr, ptr, ptr, ptr, ptr, ptr, ptr, %struct.Aig_Obj_t_, i32, i32, i32, i32, i32, i32, [7 x i32], i32, ptr, i32, ptr, i32, ptr, i32, i32, i32, ptr, i32, i32, i32, i32, i32, ptr, ptr, i32, ptr, ptr, i32, ptr, ptr, i32, i32, i32, ptr, ptr, ptr, ptr, ptr, ptr, ptr, ptr, ptr, ptr, ptr, ptr, ptr, ptr, i32, ptr, ptr, ptr, ptr, i32, i64, i64, i64, ptr, ptr }
%struct.Aig_Obj_t_ = type { %union.anon, ptr, ptr, i64, i32, i32, %union.anon.0 }
%union.anon = type { ptr }
%union.anon.0 = type { ptr }
%struct.Vec_Ptr_t_ = type { i32, i32, ptr }
%struct.Cnf_Dat_t_ = type { ptr, i32, i32, i32, ptr, ptr, ptr, ptr, ptr, ptr }

@.str.24 = private unnamed_addr constant [28 x i8] c"Solver returned undecided.\0A\00", align 1

; Function Attrs: inlinehint nounwind uwtable
define internal ptr @Vec_PtrEntry(ptr noundef %0, i32 noundef %1) #3 {
  %3 = alloca ptr, align 8
  %4 = alloca i32, align 4
  store ptr %0, ptr %3, align 8, !tbaa !12
  store i32 %1, ptr %4, align 4, !tbaa !8
  %5 = load ptr, ptr %3, align 8, !tbaa !12
  %6 = getelementptr inbounds nuw %struct.Vec_Ptr_t_, ptr %5, i32 0, i32 2
  %7 = load ptr, ptr %6, align 8, !tbaa !67
  %8 = load i32, ptr %4, align 4, !tbaa !8
  %9 = sext i32 %8 to i64
  %10 = getelementptr inbounds ptr, ptr %7, i64 %9
  %11 = load ptr, ptr %10, align 8, !tbaa !58
  ret ptr %11
}

; Function Attrs: inlinehint nounwind uwtable
define internal i32 @toLitCond(i32 noundef %0, i32 noundef %1) #3 {
  %3 = alloca i32, align 4
  %4 = alloca i32, align 4
  store i32 %0, ptr %3, align 4, !tbaa !8
  store i32 %1, ptr %4, align 4, !tbaa !8
  %5 = load i32, ptr %3, align 4, !tbaa !8
  %6 = load i32, ptr %3, align 4, !tbaa !8
  %7 = add nsw i32 %5, %6
  %8 = load i32, ptr %4, align 4, !tbaa !8
  %9 = icmp ne i32 %8, 0
  %10 = zext i1 %9 to i32
  %11 = add nsw i32 %7, %10
  ret i32 %11
}

; Function Attrs: inlinehint nounwind uwtable
define internal i32 @Aig_ObjId(ptr noundef %0) #3 {
  %2 = alloca ptr, align 8
  store ptr %0, ptr %2, align 8, !tbaa !29
  %3 = load ptr, ptr %2, align 8, !tbaa !29
  %4 = getelementptr inbounds nuw %struct.Aig_Obj_t_, ptr %3, i32 0, i32 5
  %5 = load i32, ptr %4, align 4, !tbaa !68
  ret i32 %5
}

; Function Attrs: inlinehint nounwind uwtable
define internal ptr @Aig_ManCo(ptr noundef %0, i32 noundef %1) #3 {
  %3 = alloca ptr, align 8
  %4 = alloca i32, align 4
  store ptr %0, ptr %3, align 8, !tbaa !3
  store i32 %1, ptr %4, align 4, !tbaa !8
  %5 = load ptr, ptr %3, align 8, !tbaa !3
  %6 = getelementptr inbounds nuw %struct.Aig_Man_t_, ptr %5, i32 0, i32 3
  %7 = load ptr, ptr %6, align 8, !tbaa !20
  %8 = load i32, ptr %4, align 4, !tbaa !8
  %9 = call ptr @Vec_PtrEntry(ptr noundef %7, i32 noundef %8)
  ret ptr %9
}

; Function Attrs: nounwind uwtable
define i32 @Saig_ManFilterUsingIndOne2(ptr noundef %0, ptr noundef %1, ptr noundef %2, ptr noundef %3, i32 noundef %4, i32 noundef %5, i32 noundef %6, i32 noundef %7) #0 {
  %9 = alloca i32, align 4
  %10 = alloca ptr, align 8
  %11 = alloca ptr, align 8
  %12 = alloca ptr, align 8
  %13 = alloca ptr, align 8
  %14 = alloca i32, align 4
  %15 = alloca i32, align 4
  %16 = alloca i32, align 4
  %17 = alloca i32, align 4
  %18 = alloca ptr, align 8
  %19 = alloca i32, align 4
  %20 = alloca i32, align 4
  %21 = alloca i32, align 4
  store ptr %0, ptr %10, align 8, !tbaa !3
  store ptr %1, ptr %11, align 8, !tbaa !3
  store ptr %2, ptr %12, align 8, !tbaa !91
  store ptr %3, ptr %13, align 8, !tbaa !93
  store i32 %4, ptr %14, align 4, !tbaa !8
  store i32 %5, ptr %15, align 4, !tbaa !8
  store i32 %6, ptr %16, align 4, !tbaa !8
  store i32 %7, ptr %17, align 4, !tbaa !8
  call void @llvm.lifetime.start.p0(i64 8, ptr %18) #11
  call void @llvm.lifetime.start.p0(i64 4, ptr %19) #11
  call void @llvm.lifetime.start.p0(i64 4, ptr %20) #11
  %22 = load ptr, ptr %11, align 8, !tbaa !3
  %23 = load i32, ptr %16, align 4, !tbaa !8
  %24 = mul nsw i32 %23, 3
  %25 = load i32, ptr %17, align 4, !tbaa !8
  %26 = add nsw i32 %24, %25
  %27 = call ptr @Aig_ManCo(ptr noundef %22, i32 noundef %26)
  store ptr %27, ptr %18, align 8, !tbaa !29
  %28 = load ptr, ptr %13, align 8, !tbaa !93
  %29 = getelementptr inbounds nuw %struct.Cnf_Dat_t_, ptr %28, i32 0, i32 5
  %30 = load ptr, ptr %29, align 8, !tbaa !95
  %31 = load ptr, ptr %18, align 8, !tbaa !29
  %32 = call i32 @Aig_ObjId(ptr noundef %31)
  %33 = sext i32 %32 to i64
  %34 = getelementptr inbounds i32, ptr %30, i64 %33
  %35 = load i32, ptr %34, align 4, !tbaa !8
  %36 = call i32 @toLitCond(i32 noundef %35, i32 noundef 0)
  store i32 %36, ptr %19, align 4, !tbaa !8
  %37 = load ptr, ptr %12, align 8, !tbaa !91
  %38 = getelementptr inbounds i32, ptr %19, i64 1
  %39 = load i32, ptr %14, align 4, !tbaa !8
  %40 = sext i32 %39 to i64
  %41 = call i32 @sat_solver_solve(ptr noundef %37, ptr noundef %19, ptr noundef %38, i64 noundef %40, i64 noundef 0, i64 noundef 0, i64 noundef 0)
  store i32 %41, ptr %20, align 4, !tbaa !8
  %42 = load i32, ptr %20, align 4, !tbaa !8
  %43 = icmp eq i32 %42, -1
  br i1 %43, label %44, label %46

44:                                               ; preds = %8
  %45 = load i32, ptr %20, align 4, !tbaa !8
  store i32 %45, ptr %9, align 4
  store i32 1, ptr %21, align 4
  br label %54

46:                                               ; preds = %8
  %47 = load i32, ptr %20, align 4, !tbaa !8
  %48 = icmp eq i32 %47, 0
  br i1 %48, label %49, label %52

49:                                               ; preds = %46
  %50 = call i32 (ptr, ...) @printf(ptr noundef @.str.24)
  %51 = load i32, ptr %20, align 4, !tbaa !8
  store i32 %51, ptr %9, align 4
  store i32 1, ptr %21, align 4
  br label %54

52:                                               ; preds = %46
  %53 = load i32, ptr %20, align 4, !tbaa !8
  store i32 %53, ptr %9, align 4
  store i32 1, ptr %21, align 4
  br label %54

54:                                               ; preds = %52, %49, %44
  call void @llvm.lifetime.end.p0(i64 4, ptr %20) #11
  call void @llvm.lifetime.end.p0(i64 4, ptr %19) #11
  call void @llvm.lifetime.end.p0(i64 8, ptr %18) #11
  %55 = load i32, ptr %9, align 4
  ret i32 %55
}