; Function Attrs: nounwind uwtable
define i32 @Saig_ManFilterUsingIndOne2(ptr noundef readnone captures(none) %0, ptr noundef readonly captures(none) %1, ptr noundef %2, ptr noundef readonly captures(none) %3, i32 noundef %4, i32 noundef %5, i32 noundef %6, i32 noundef %7) local_unnamed_addr #0 {
  %9 = alloca i32, align 4
  call void @llvm.lifetime.start.p0(i64 4, ptr nonnull %9) #16
  %10 = mul nsw i32 %6, 3
  %11 = add nsw i32 %10, %7
  %12 = getelementptr i8, ptr %1, i64 24
  %.val12 = load ptr, ptr %12, align 8, !tbaa !39
  %13 = getelementptr i8, ptr %.val12, i64 8
  %.val12.val = load ptr, ptr %13, align 8, !tbaa !40
  %14 = sext i32 %11 to i64
  %15 = getelementptr inbounds ptr, ptr %.val12.val, i64 %14
  %16 = load ptr, ptr %15, align 8, !tbaa !28
  %17 = getelementptr inbounds nuw i8, ptr %3, i64 32
  %18 = load ptr, ptr %17, align 8, !tbaa !84
  %19 = getelementptr i8, ptr %16, i64 36
  %.val = load i32, ptr %19, align 4, !tbaa !38
  %20 = sext i32 %.val to i64
  %21 = getelementptr inbounds i32, ptr %18, i64 %20
  %22 = load i32, ptr %21, align 4, !tbaa !9
  %23 = shl nsw i32 %22, 1
  store i32 %23, ptr %9, align 4, !tbaa !9
  %24 = getelementptr inbounds nuw i8, ptr %9, i64 4
  %25 = sext i32 %4 to i64
  %26 = call i32 @sat_solver_solve(ptr noundef %2, ptr noundef nonnull %9, ptr noundef nonnull %24, i64 noundef %25, i64 noundef 0, i64 noundef 0, i64 noundef 0) #16
  %cond = icmp eq i32 %26, 0
  br i1 %cond, label %27, label %28

27:                                               ; preds = %8
  %puts = call i32 @puts(ptr nonnull dereferenceable(1) @str.3)
  br label %28

28:                                               ; preds = %8, %27
  call void @llvm.lifetime.end.p0(i64 4, ptr nonnull %9) #16
  ret i32 %26
}